target datalayout = "e-m:e-p270:32:32-p271:32:32-p272:64:64-i64:64-i128:128-f80:128-n8:16:32:64-S128"
target triple = "x86_64-unknown-linux-gnu"

%"struct.nla::emonics::cell" = type <{ ptr, i32, [4 x i8] }>

@.str.9 = private unnamed_addr constant [2 x i8] c" \00", align 1

; Function Attrs: mustprogress uwtable
define hidden noundef nonnull align 8 dereferenceable(8) ptr @_ZNK3nla7emonics7displayERSoPNS0_4cellE(ptr noundef nonnull align 8 dereferenceable(216) %this, ptr noundef nonnull align 8 dereferenceable(8) %out, ptr noundef %c) #5 align 2 {
entry:
  %this.addr = alloca ptr, align 8
  %out.addr = alloca ptr, align 8
  %c.addr = alloca ptr, align 8
  %c0 = alloca ptr, align 8
  store ptr %this, ptr %this.addr, align 8
  store ptr %out, ptr %out.addr, align 8
  store ptr %c, ptr %c.addr, align 8
  %0 = load ptr, ptr %c.addr, align 8
  store ptr %0, ptr %c0, align 8
  %1 = load ptr, ptr %c.addr, align 8
  %tobool = icmp ne ptr %1, null
  br i1 %tobool, label %if.then, label %if.end

if.then:                                          ; preds = %entry
  br label %do.body

do.body:                                          ; preds = %do.cond, %if.then
  %2 = load ptr, ptr %out.addr, align 8
  %3 = load ptr, ptr %c.addr, align 8
  %m_index = getelementptr inbounds %"struct.nla::emonics::cell", ptr %3, i32 0, i32 1
  %4 = load i32, ptr %m_index, align 8
  %call = call noundef nonnull align 8 dereferenceable(8) ptr @_ZNSolsEj(ptr noundef nonnull align 8 dereferenceable(8) %2, i32 noundef %4)
  %call2 = call noundef nonnull align 8 dereferenceable(8) ptr @_ZStlsISt11char_traitsIcEERSt13basic_ostreamIcT_ES5_PKc(ptr noundef nonnull align 8 dereferenceable(8) %call, ptr noundef @.str.9)
  %5 = load ptr, ptr %c.addr, align 8
  %m_next = getelementptr inbounds %"struct.nla::emonics::cell", ptr %5, i32 0, i32 0
  %6 = load ptr, ptr %m_next, align 8
  store ptr %6, ptr %c.addr, align 8
  br label %do.cond

do.cond:                                          ; preds = %do.body
  %7 = load ptr, ptr %c.addr, align 8
  %8 = load ptr, ptr %c0, align 8
  %cmp = icmp ne ptr %7, %8
  br i1 %cmp, label %do.body, label %do.end, !llvm.loop !16

do.end:                                           ; preds = %do.cond
  br label %if.end

if.end:                                           ; preds = %do.end, %entry
  %9 = load ptr, ptr %out.addr, align 8
  ret ptr %9
}