; Function Attrs: mustprogress uwtable
define hidden noundef nonnull align 8 dereferenceable(8) ptr @_ZNK3nla7emonics7displayERSoPNS0_4cellE(ptr nocapture noundef nonnull readnone align 8 dereferenceable(216) %this, ptr noundef nonnull returned align 8 dereferenceable(8) %out, ptr noundef readonly %c) local_unnamed_addr #4 align 2 {
entry:
  %tobool.not = icmp eq ptr %c, null
  br i1 %tobool.not, label %if.end, label %do.body

do.body:                                          ; preds = %entry, %do.body
  %c.addr.0 = phi ptr [ %1, %do.body ], [ %c, %entry ]
  %m_index = getelementptr inbounds i8, ptr %c.addr.0, i64 8
  %0 = load i32, ptr %m_index, align 8
  %call = tail call noundef nonnull align 8 dereferenceable(8) ptr @_ZNSolsEj(ptr noundef nonnull align 8 dereferenceable(8) %out, i32 noundef %0)
  %call2 = tail call noundef nonnull align 8 dereferenceable(8) ptr @_ZStlsISt11char_traitsIcEERSt13basic_ostreamIcT_ES5_PKc(ptr noundef nonnull align 8 dereferenceable(8) %call, ptr noundef nonnull @.str.9)
  %1 = load ptr, ptr %c.addr.0, align 8
  %cmp.not = icmp eq ptr %1, %c
  br i1 %cmp.not, label %if.end, label %do.body, !llvm.loop !28

if.end:                                           ; preds = %do.body, %entry
  ret ptr %out
}